target datalayout = "e-m:e-p270:32:32-p271:32:32-p272:64:64-i64:64-i128:128-f80:128-n8:16:32:64-S128"
target triple = "x86_64-pc-linux-gnu"

%class.rational = type { %class.mpq }
%class.mpq = type { %class.mpz, %class.mpz }
%class.mpz = type { i32, i8, ptr }
%class.svector.9 = type { %class.vector.10 }
%class.vector.10 = type { ptr }
%"class.dd::pdd_manager" = type { %class.svector, %class.vector.0, %class.ptr_hashtable, %class.hashtable, %class.hashtable.3, %class.map, %class.svector.9, ptr, %class.svector.9, %class.svector.9, %class.svector.9, %class.svector.9, %class.small_object_allocator, %class.svector.9, i32, %class.svector.9, %class.svector.9, %class.svector.11, i8, i8, i32, i32, %class.svector.9, %class.svector.9, %class.rational, %class.rational, i32, %class.rational, %class.svector.9, i32, %class.svector.9, %class.svector.9, %class.rational, %class.rational }
%class.svector = type { %class.vector }
%class.vector = type { ptr }
%class.vector.0 = type { ptr }
%class.ptr_hashtable = type { %class.core_hashtable.base, [4 x i8] }
%class.core_hashtable.base = type <{ ptr, i32, i32, i32 }>
%class.hashtable = type { %class.core_hashtable.base.2, [4 x i8] }
%class.core_hashtable.base.2 = type <{ ptr, i32, i32, i32 }>
%class.hashtable.3 = type { %class.core_hashtable.base.5, [4 x i8] }
%class.core_hashtable.base.5 = type <{ ptr, i32, i32, i32 }>
%class.map = type { %class.table2map }
%class.table2map = type { %class.core_hashtable.7 }
%class.core_hashtable.7 = type <{ ptr, i32, i32, i32, [4 x i8] }>
%class.small_object_allocator = type { [32 x ptr], [32 x ptr], i64 }
%class.svector.11 = type { %class.vector.12 }
%class.vector.12 = type { ptr }

; Function Attrs: mustprogress nounwind uwtable
define linkonce_odr hidden void @_ZN6vectorIjLb0EjE6shrinkEj(ptr noundef nonnull align 8 dereferenceable(8) %0, i32 noundef %1) #5 comdat align 2 {
  %3 = alloca ptr, align 8
  %4 = alloca i32, align 4
  store ptr %0, ptr %3, align 8, !tbaa !91
  store i32 %1, ptr %4, align 4, !tbaa !8
  %5 = load ptr, ptr %3, align 8
  %6 = getelementptr inbounds nuw %class.vector.10, ptr %5, i32 0, i32 0
  %7 = load ptr, ptr %6, align 8, !tbaa !94
  %8 = icmp ne ptr %7, null
  br i1 %8, label %9, label %14

9:                                                ; preds = %2
  %10 = load i32, ptr %4, align 4, !tbaa !8
  %11 = getelementptr inbounds nuw %class.vector.10, ptr %5, i32 0, i32 0
  %12 = load ptr, ptr %11, align 8, !tbaa !94
  %13 = getelementptr inbounds i32, ptr %12, i64 -1
  store i32 %10, ptr %13, align 4, !tbaa !8
  br label %15

14:                                               ; preds = %2
  br label %15

15:                                               ; preds = %14, %9
  ret void
}

; Function Attrs: mustprogress nounwind uwtable
define linkonce_odr hidden noundef nonnull align 4 dereferenceable(4) ptr @_ZN6vectorIjLb0EjEixEj(ptr noundef nonnull align 8 dereferenceable(8) %0, i32 noundef %1) #5 comdat align 2 {
  %3 = alloca ptr, align 8
  %4 = alloca i32, align 4
  store ptr %0, ptr %3, align 8, !tbaa !91
  store i32 %1, ptr %4, align 4, !tbaa !8
  %5 = load ptr, ptr %3, align 8
  %6 = getelementptr inbounds nuw %class.vector.10, ptr %5, i32 0, i32 0
  %7 = load ptr, ptr %6, align 8, !tbaa !94
  %8 = load i32, ptr %4, align 4, !tbaa !8
  %9 = zext i32 %8 to i64
  %10 = getelementptr inbounds nuw i32, ptr %7, i64 %9
  ret ptr %10
}

; Function Attrs: mustprogress nounwind uwtable
define linkonce_odr hidden noundef i32 @_ZNK6vectorIjLb0EjE4sizeEv(ptr noundef nonnull align 8 dereferenceable(8) %0) #5 comdat align 2 {
  %2 = alloca i32, align 4
  %3 = alloca ptr, align 8
  store ptr %0, ptr %3, align 8, !tbaa !91
  %4 = load ptr, ptr %3, align 8
  %5 = getelementptr inbounds nuw %class.vector.10, ptr %4, i32 0, i32 0
  %6 = load ptr, ptr %5, align 8, !tbaa !94
  %7 = icmp eq ptr %6, null
  br i1 %7, label %8, label %9

8:                                                ; preds = %1
  store i32 0, ptr %2, align 4
  br label %14

9:                                                ; preds = %1
  %10 = getelementptr inbounds nuw %class.vector.10, ptr %4, i32 0, i32 0
  %11 = load ptr, ptr %10, align 8, !tbaa !94
  %12 = getelementptr inbounds i32, ptr %11, i64 -1
  %13 = load i32, ptr %12, align 4, !tbaa !8
  store i32 %13, ptr %2, align 4
  br label %14

14:                                               ; preds = %9, %8
  %15 = load i32, ptr %2, align 4
  ret i32 %15
}

; Function Attrs: mustprogress uwtable
define linkonce_odr hidden noundef nonnull align 8 dereferenceable(8) ptr @_ZN6vectorIjLb0EjE9push_backERKj(ptr noundef nonnull align 8 dereferenceable(8) %0, ptr noundef nonnull align 4 dereferenceable(4) %1) #4 comdat align 2 {
  %3 = alloca ptr, align 8
  %4 = alloca ptr, align 8
  store ptr %0, ptr %3, align 8, !tbaa !91
  store ptr %1, ptr %4, align 8, !tbaa !93
  %5 = load ptr, ptr %3, align 8
  %6 = getelementptr inbounds nuw %class.vector.10, ptr %5, i32 0, i32 0
  %7 = load ptr, ptr %6, align 8, !tbaa !94
  %8 = icmp eq ptr %7, null
  br i1 %8, label %19, label %9

9:                                                ; preds = %2
  %10 = getelementptr inbounds nuw %class.vector.10, ptr %5, i32 0, i32 0
  %11 = load ptr, ptr %10, align 8, !tbaa !94
  %12 = getelementptr inbounds i32, ptr %11, i64 -1
  %13 = load i32, ptr %12, align 4, !tbaa !8
  %14 = getelementptr inbounds nuw %class.vector.10, ptr %5, i32 0, i32 0
  %15 = load ptr, ptr %14, align 8, !tbaa !94
  %16 = getelementptr inbounds i32, ptr %15, i64 -2
  %17 = load i32, ptr %16, align 4, !tbaa !8
  %18 = icmp eq i32 %13, %17
  br i1 %18, label %19, label %20

19:                                               ; preds = %9, %2
  call void @_ZN6vectorIjLb0EjE13expand_vectorEv(ptr noundef nonnull align 8 dereferenceable(8) %5)
  br label %20

20:                                               ; preds = %19, %9
  %21 = getelementptr inbounds nuw %class.vector.10, ptr %5, i32 0, i32 0
  %22 = load ptr, ptr %21, align 8, !tbaa !94
  %23 = getelementptr inbounds nuw %class.vector.10, ptr %5, i32 0, i32 0
  %24 = load ptr, ptr %23, align 8, !tbaa !94
  %25 = getelementptr inbounds i32, ptr %24, i64 -1
  %26 = load i32, ptr %25, align 4, !tbaa !8
  %27 = zext i32 %26 to i64
  %28 = getelementptr inbounds nuw i32, ptr %22, i64 %27
  %29 = load ptr, ptr %4, align 8, !tbaa !93
  %30 = load i32, ptr %29, align 4, !tbaa !8
  store i32 %30, ptr %28, align 4, !tbaa !8
  %31 = getelementptr inbounds nuw %class.vector.10, ptr %5, i32 0, i32 0
  %32 = load ptr, ptr %31, align 8, !tbaa !94
  %33 = getelementptr inbounds i32, ptr %32, i64 -1
  %34 = load i32, ptr %33, align 4, !tbaa !8
  %35 = add i32 %34, 1
  store i32 %35, ptr %33, align 4, !tbaa !8
  ret ptr %5
}

; Function Attrs: mustprogress uwtable
define hidden void @_ZN2dd11pdd_manager3popEj(ptr noundef nonnull align 8 dereferenceable(952) %0, i32 noundef %1) #4 align 2 {
  %3 = alloca ptr, align 8
  %4 = alloca i32, align 4
  store ptr %0, ptr %3, align 8, !tbaa !3
  store i32 %1, ptr %4, align 4, !tbaa !8
  %5 = load ptr, ptr %3, align 8
  %6 = getelementptr inbounds nuw %"class.dd::pdd_manager", ptr %5, i32 0, i32 6
  %7 = getelementptr inbounds nuw %"class.dd::pdd_manager", ptr %5, i32 0, i32 6
  %8 = call noundef i32 @_ZNK6vectorIjLb0EjE4sizeEv(ptr noundef nonnull align 8 dereferenceable(8) %7)
  %9 = load i32, ptr %4, align 4, !tbaa !8
  %10 = sub i32 %8, %9
  call void @_ZN6vectorIjLb0EjE6shrinkEj(ptr noundef nonnull align 8 dereferenceable(8) %6, i32 noundef %10)
  ret void
}

; Function Attrs: mustprogress uwtable
define hidden noundef i32 @_ZN2dd11pdd_manager4readEj(ptr noundef nonnull align 8 dereferenceable(952) %0, i32 noundef %1) #4 align 2 {
  %3 = alloca ptr, align 8
  %4 = alloca i32, align 4
  store ptr %0, ptr %3, align 8, !tbaa !3
  store i32 %1, ptr %4, align 4, !tbaa !8
  %5 = load ptr, ptr %3, align 8
  %6 = getelementptr inbounds nuw %"class.dd::pdd_manager", ptr %5, i32 0, i32 6
  %7 = getelementptr inbounds nuw %"class.dd::pdd_manager", ptr %5, i32 0, i32 6
  %8 = call noundef i32 @_ZNK6vectorIjLb0EjE4sizeEv(ptr noundef nonnull align 8 dereferenceable(8) %7)
  %9 = load i32, ptr %4, align 4, !tbaa !8
  %10 = sub i32 %8, %9
  %11 = call noundef nonnull align 4 dereferenceable(4) ptr @_ZN6vectorIjLb0EjEixEj(ptr noundef nonnull align 8 dereferenceable(8) %6, i32 noundef %10)
  %12 = load i32, ptr %11, align 4, !tbaa !8
  ret i32 %12
}

; Function Attrs: mustprogress uwtable
define hidden void @_ZN2dd11pdd_manager4pushEj(ptr noundef nonnull align 8 dereferenceable(952) %0, i32 noundef %1) #4 align 2 {
  %3 = alloca ptr, align 8
  %4 = alloca i32, align 4
  store ptr %0, ptr %3, align 8, !tbaa !3
  store i32 %1, ptr %4, align 4, !tbaa !8
  %5 = load ptr, ptr %3, align 8
  %6 = getelementptr inbounds nuw %"class.dd::pdd_manager", ptr %5, i32 0, i32 6
  %7 = call noundef nonnull align 8 dereferenceable(8) ptr @_ZN6vectorIjLb0EjE9push_backERKj(ptr noundef nonnull align 8 dereferenceable(8) %6, ptr noundef nonnull align 4 dereferenceable(4) %4)
  ret void
}

; Function Attrs: mustprogress uwtable
define hidden noundef i32 @_ZN2dd11pdd_manager15reduce_on_matchEjj(ptr noundef nonnull align 8 dereferenceable(952) %0, i32 noundef %1, i32 noundef %2) #4 align 2 {
  %4 = alloca ptr, align 8
  %5 = alloca i32, align 4
  %6 = alloca i32, align 4
  store ptr %0, ptr %4, align 8, !tbaa !3
  store i32 %1, ptr %5, align 4, !tbaa !8
  store i32 %2, ptr %6, align 4, !tbaa !8
  %7 = load ptr, ptr %4, align 8
  %8 = load i32, ptr %5, align 4, !tbaa !8
  call void @_ZN2dd11pdd_manager4pushEj(ptr noundef nonnull align 8 dereferenceable(952) %7, i32 noundef %8)
  br label %9

9:                                                ; preds = %13, %3
  %10 = load i32, ptr %6, align 4, !tbaa !8
  %11 = load i32, ptr %5, align 4, !tbaa !8
  %12 = call noundef zeroext i1 @_ZNK2dd11pdd_manager9lm_occursEjj(ptr noundef nonnull align 8 dereferenceable(952) %7, i32 noundef %10, i32 noundef %11)
  br i1 %12, label %13, label %25

13:                                               ; preds = %9
  %14 = load i32, ptr %6, align 4, !tbaa !8
  %15 = load i32, ptr %5, align 4, !tbaa !8
  %16 = call noundef i32 @_ZN2dd11pdd_manager11lt_quotientEjj(ptr noundef nonnull align 8 dereferenceable(952) %7, i32 noundef %14, i32 noundef %15)
  call void @_ZN2dd11pdd_manager4pushEj(ptr noundef nonnull align 8 dereferenceable(952) %7, i32 noundef %16)
  %17 = call noundef i32 @_ZN2dd11pdd_manager4readEj(ptr noundef nonnull align 8 dereferenceable(952) %7, i32 noundef 1)
  %18 = load i32, ptr %6, align 4, !tbaa !8
  %19 = call noundef i32 @_ZN2dd11pdd_manager9apply_recEjjNS0_6pdd_opE(ptr noundef nonnull align 8 dereferenceable(952) %7, i32 noundef %17, i32 noundef %18, i32 noundef 5)
  call void @_ZN2dd11pdd_manager4pushEj(ptr noundef nonnull align 8 dereferenceable(952) %7, i32 noundef %19)
  %20 = load i32, ptr %5, align 4, !tbaa !8
  %21 = call noundef i32 @_ZN2dd11pdd_manager4readEj(ptr noundef nonnull align 8 dereferenceable(952) %7, i32 noundef 1)
  %22 = call noundef i32 @_ZN2dd11pdd_manager9apply_recEjjNS0_6pdd_opE(ptr noundef nonnull align 8 dereferenceable(952) %7, i32 noundef %20, i32 noundef %21, i32 noundef 2)
  call void @_ZN2dd11pdd_manager4pushEj(ptr noundef nonnull align 8 dereferenceable(952) %7, i32 noundef %22)
  %23 = call noundef i32 @_ZN2dd11pdd_manager4readEj(ptr noundef nonnull align 8 dereferenceable(952) %7, i32 noundef 1)
  store i32 %23, ptr %5, align 4, !tbaa !8
  call void @_ZN2dd11pdd_manager3popEj(ptr noundef nonnull align 8 dereferenceable(952) %7, i32 noundef 4)
  %24 = load i32, ptr %5, align 4, !tbaa !8
  call void @_ZN2dd11pdd_manager4pushEj(ptr noundef nonnull align 8 dereferenceable(952) %7, i32 noundef %24)
  br label %9, !llvm.loop !194

25:                                               ; preds = %9
  call void @_ZN2dd11pdd_manager3popEj(ptr noundef nonnull align 8 dereferenceable(952) %7, i32 noundef 1)
  %26 = load i32, ptr %5, align 4, !tbaa !8
  ret i32 %26
}