; Function Attrs: mustprogress uwtable
define hidden noundef i32 @_ZN2dd11pdd_manager15reduce_on_matchEjj(ptr noundef nonnull align 8 dereferenceable(952) %0, i32 noundef %1, i32 noundef %2) local_unnamed_addr #3 align 2 {
  %4 = getelementptr inbounds nuw i8, ptr %0, i64 112
  %5 = load ptr, ptr %4, align 8, !tbaa !53
  %6 = icmp eq ptr %5, null
  br i1 %6, label %13, label %7

7:                                                ; preds = %3
  %8 = getelementptr inbounds i8, ptr %5, i64 -4
  %9 = load i32, ptr %8, align 4, !tbaa !83
  %10 = getelementptr inbounds i8, ptr %5, i64 -8
  %11 = load i32, ptr %10, align 4, !tbaa !83
  %12 = icmp eq i32 %9, %11
  br i1 %12, label %13, label %_ZN2dd11pdd_manager4pushEj.exit

13:                                               ; preds = %7, %3
  tail call void @_ZN6vectorIjLb0EjE13expand_vectorEv(ptr noundef nonnull align 8 dereferenceable(8) %4)
  %.pre.i.i = load ptr, ptr %4, align 8, !tbaa !53
  %.phi.trans.insert.i.i = getelementptr inbounds i8, ptr %.pre.i.i, i64 -4
  %.pre2.i.i = load i32, ptr %.phi.trans.insert.i.i, align 4, !tbaa !83
  br label %_ZN2dd11pdd_manager4pushEj.exit

_ZN2dd11pdd_manager4pushEj.exit:                  ; preds = %7, %13
  %14 = phi i32 [ %.pre2.i.i, %13 ], [ %9, %7 ]
  %15 = phi ptr [ %.pre.i.i, %13 ], [ %5, %7 ]
  %16 = getelementptr inbounds i8, ptr %15, i64 -4
  %17 = zext i32 %14 to i64
  %18 = getelementptr inbounds nuw i32, ptr %15, i64 %17
  store i32 %1, ptr %18, align 4, !tbaa !83
  %19 = add i32 %14, 1
  store i32 %19, ptr %16, align 4, !tbaa !83
  %20 = tail call noundef zeroext i1 @_ZNK2dd11pdd_manager9lm_occursEjj(ptr noundef nonnull align 8 dereferenceable(952) %0, i32 noundef %2, i32 noundef %1)
  br i1 %20, label %.lr.ph, label %._crit_edge

.lr.ph:                                           ; preds = %_ZN2dd11pdd_manager4pushEj.exit, %_ZN2dd11pdd_manager4pushEj.exit28
  %.030 = phi i32 [ %53, %_ZN2dd11pdd_manager4pushEj.exit28 ], [ %1, %_ZN2dd11pdd_manager4pushEj.exit ]
  %21 = tail call noundef i32 @_ZN2dd11pdd_manager11lt_quotientEjj(ptr noundef nonnull align 8 dereferenceable(952) %0, i32 noundef %2, i32 noundef %.030)
  %22 = load ptr, ptr %4, align 8, !tbaa !53
  %23 = icmp eq ptr %22, null
  br i1 %23, label %30, label %24

24:                                               ; preds = %.lr.ph
  %25 = getelementptr inbounds i8, ptr %22, i64 -4
  %26 = load i32, ptr %25, align 4, !tbaa !83
  %27 = getelementptr inbounds i8, ptr %22, i64 -8
  %28 = load i32, ptr %27, align 4, !tbaa !83
  %29 = icmp eq i32 %26, %28
  br i1 %29, label %30, label %_ZN2dd11pdd_manager4readEj.exit

30:                                               ; preds = %24, %.lr.ph
  tail call void @_ZN6vectorIjLb0EjE13expand_vectorEv(ptr noundef nonnull align 8 dereferenceable(8) %4)
  %.pre.i.i9 = load ptr, ptr %4, align 8, !tbaa !53
  %.phi.trans.insert.i.i10 = getelementptr inbounds i8, ptr %.pre.i.i9, i64 -4
  %.pre2.i.i11 = load i32, ptr %.phi.trans.insert.i.i10, align 4, !tbaa !83
  br label %_ZN2dd11pdd_manager4readEj.exit

_ZN2dd11pdd_manager4readEj.exit:                  ; preds = %24, %30
  %31 = phi i32 [ %.pre2.i.i11, %30 ], [ %26, %24 ]
  %32 = phi ptr [ %.pre.i.i9, %30 ], [ %22, %24 ]
  %33 = getelementptr inbounds i8, ptr %32, i64 -4
  %34 = zext i32 %31 to i64
  %35 = getelementptr inbounds nuw i32, ptr %32, i64 %34
  store i32 %21, ptr %35, align 4, !tbaa !83
  %36 = add i32 %31, 1
  store i32 %36, ptr %33, align 4, !tbaa !83
  %37 = tail call noundef i32 @_ZN2dd11pdd_manager9apply_recEjjNS0_6pdd_opE(ptr noundef nonnull align 8 dereferenceable(952) %0, i32 noundef %21, i32 noundef %2, i32 noundef 5)
  %38 = load ptr, ptr %4, align 8, !tbaa !53
  %39 = icmp eq ptr %38, null
  br i1 %39, label %46, label %40

40:                                               ; preds = %_ZN2dd11pdd_manager4readEj.exit
  %41 = getelementptr inbounds i8, ptr %38, i64 -4
  %42 = load i32, ptr %41, align 4, !tbaa !83
  %43 = getelementptr inbounds i8, ptr %38, i64 -8
  %44 = load i32, ptr %43, align 4, !tbaa !83
  %45 = icmp eq i32 %42, %44
  br i1 %45, label %46, label %_ZN2dd11pdd_manager4readEj.exit18

46:                                               ; preds = %40, %_ZN2dd11pdd_manager4readEj.exit
  tail call void @_ZN6vectorIjLb0EjE13expand_vectorEv(ptr noundef nonnull align 8 dereferenceable(8) %4)
  %.pre.i.i13 = load ptr, ptr %4, align 8, !tbaa !53
  %.phi.trans.insert.i.i14 = getelementptr inbounds i8, ptr %.pre.i.i13, i64 -4
  %.pre2.i.i15 = load i32, ptr %.phi.trans.insert.i.i14, align 4, !tbaa !83
  br label %_ZN2dd11pdd_manager4readEj.exit18

_ZN2dd11pdd_manager4readEj.exit18:                ; preds = %40, %46
  %47 = phi i32 [ %.pre2.i.i15, %46 ], [ %42, %40 ]
  %48 = phi ptr [ %.pre.i.i13, %46 ], [ %38, %40 ]
  %49 = getelementptr inbounds i8, ptr %48, i64 -4
  %50 = zext i32 %47 to i64
  %51 = getelementptr inbounds nuw i32, ptr %48, i64 %50
  store i32 %37, ptr %51, align 4, !tbaa !83
  %52 = add i32 %47, 1
  store i32 %52, ptr %49, align 4, !tbaa !83
  %53 = tail call noundef i32 @_ZN2dd11pdd_manager9apply_recEjjNS0_6pdd_opE(ptr noundef nonnull align 8 dereferenceable(952) %0, i32 noundef %.030, i32 noundef %37, i32 noundef 2)
  %54 = load ptr, ptr %4, align 8, !tbaa !53
  %55 = icmp eq ptr %54, null
  br i1 %55, label %62, label %56

56:                                               ; preds = %_ZN2dd11pdd_manager4readEj.exit18
  %57 = getelementptr inbounds i8, ptr %54, i64 -4
  %58 = load i32, ptr %57, align 4, !tbaa !83
  %59 = getelementptr inbounds i8, ptr %54, i64 -8
  %60 = load i32, ptr %59, align 4, !tbaa !83
  %61 = icmp eq i32 %58, %60
  br i1 %61, label %62, label %63

62:                                               ; preds = %56, %_ZN2dd11pdd_manager4readEj.exit18
  tail call void @_ZN6vectorIjLb0EjE13expand_vectorEv(ptr noundef nonnull align 8 dereferenceable(8) %4)
  %.pre.i.i19 = load ptr, ptr %4, align 8, !tbaa !53
  %.phi.trans.insert.i.i20 = getelementptr inbounds i8, ptr %.pre.i.i19, i64 -4
  %.pre2.i.i21 = load i32, ptr %.phi.trans.insert.i.i20, align 4, !tbaa !83
  br label %63

63:                                               ; preds = %56, %62
  %64 = phi i32 [ %.pre2.i.i21, %62 ], [ %58, %56 ]
  %65 = phi ptr [ %.pre.i.i19, %62 ], [ %54, %56 ]
  %66 = getelementptr inbounds i8, ptr %65, i64 -4
  %67 = zext i32 %64 to i64
  %68 = getelementptr inbounds nuw i32, ptr %65, i64 %67
  store i32 %53, ptr %68, align 4, !tbaa !83
  %69 = add i32 %64, -3
  store i32 %69, ptr %66, align 4, !tbaa !83
  %70 = getelementptr inbounds i8, ptr %65, i64 -8
  %71 = load i32, ptr %70, align 4, !tbaa !83
  %72 = icmp eq i32 %69, %71
  br i1 %72, label %73, label %_ZN2dd11pdd_manager4pushEj.exit28

73:                                               ; preds = %63
  tail call void @_ZN6vectorIjLb0EjE13expand_vectorEv(ptr noundef nonnull align 8 dereferenceable(8) %4)
  %.pre.i.i25 = load ptr, ptr %4, align 8, !tbaa !53
  %.phi.trans.insert.i.i26 = getelementptr inbounds i8, ptr %.pre.i.i25, i64 -4
  %.pre2.i.i27 = load i32, ptr %.phi.trans.insert.i.i26, align 4, !tbaa !83
  br label %_ZN2dd11pdd_manager4pushEj.exit28

_ZN2dd11pdd_manager4pushEj.exit28:                ; preds = %63, %73
  %74 = phi i32 [ %.pre2.i.i27, %73 ], [ %69, %63 ]
  %75 = phi ptr [ %.pre.i.i25, %73 ], [ %65, %63 ]
  %76 = getelementptr inbounds i8, ptr %75, i64 -4
  %77 = zext i32 %74 to i64
  %78 = getelementptr inbounds nuw i32, ptr %75, i64 %77
  store i32 %53, ptr %78, align 4, !tbaa !83
  %79 = add i32 %74, 1
  store i32 %79, ptr %76, align 4, !tbaa !83
  %80 = tail call noundef zeroext i1 @_ZNK2dd11pdd_manager9lm_occursEjj(ptr noundef nonnull align 8 dereferenceable(952) %0, i32 noundef %2, i32 noundef %53)
  br i1 %80, label %.lr.ph, label %._crit_edge, !llvm.loop !223

._crit_edge:                                      ; preds = %_ZN2dd11pdd_manager4pushEj.exit28, %_ZN2dd11pdd_manager4pushEj.exit
  %.0.lcssa = phi i32 [ %1, %_ZN2dd11pdd_manager4pushEj.exit ], [ %53, %_ZN2dd11pdd_manager4pushEj.exit28 ]
  %81 = load ptr, ptr %4, align 8, !tbaa !53
  %82 = icmp eq ptr %81, null
  br i1 %82, label %_ZN2dd11pdd_manager3popEj.exit29, label %83

83:                                               ; preds = %._crit_edge
  %84 = getelementptr inbounds i8, ptr %81, i64 -4
  %85 = load i32, ptr %84, align 4, !tbaa !83
  %86 = add i32 %85, -1
  store i32 %86, ptr %84, align 4, !tbaa !83
  br label %_ZN2dd11pdd_manager3popEj.exit29

_ZN2dd11pdd_manager3popEj.exit29:                 ; preds = %._crit_edge, %83
  ret i32 %.0.lcssa
}